; Function Attrs: mustprogress nofree norecurse nosync nounwind willreturn memory(argmem: write) uwtable
define dso_local void @_ZN24btInverseDynamicsBullet37setZeroERNS_5mat33E(ptr noundef nonnull writeonly align 4 captures(none) dereferenceable(48) initializes((0, 12), (16, 28), (32, 44)) %0) local_unnamed_addr #0 {
  store float 0.000000e+00, ptr %0, align 4, !tbaa !4
  %2 = getelementptr inbounds nuw i8, ptr %0, i64 4
  store float 0.000000e+00, ptr %2, align 4, !tbaa !4
  %3 = getelementptr inbounds nuw i8, ptr %0, i64 8
  store float 0.000000e+00, ptr %3, align 4, !tbaa !4
  %4 = getelementptr inbounds nuw i8, ptr %0, i64 16
  store float 0.000000e+00, ptr %4, align 4, !tbaa !4
  %5 = getelementptr inbounds nuw i8, ptr %0, i64 20
  store float 0.000000e+00, ptr %5, align 4, !tbaa !4
  %6 = getelementptr inbounds nuw i8, ptr %0, i64 24
  store float 0.000000e+00, ptr %6, align 4, !tbaa !4
  %7 = getelementptr inbounds nuw i8, ptr %0, i64 32
  store float 0.000000e+00, ptr %7, align 4, !tbaa !4
  %8 = getelementptr inbounds nuw i8, ptr %0, i64 36
  store float 0.000000e+00, ptr %8, align 4, !tbaa !4
  %9 = getelementptr inbounds nuw i8, ptr %0, i64 40
  store float 0.000000e+00, ptr %9, align 4, !tbaa !4
  ret void
}